target datalayout = "e-m:e-p270:32:32-p271:32:32-p272:64:64-i64:64-i128:128-f80:128-n8:16:32:64-S128"
target triple = "x86_64-pc-linux-gnu"

%struct.darktable_t = type { %struct.dt_codepath_t, i32, i32, ptr, ptr, ptr, ptr, ptr, ptr, ptr, ptr, ptr, ptr, ptr, ptr, ptr, ptr, ptr, ptr, ptr, ptr, ptr, ptr, ptr, ptr, ptr, ptr, ptr, ptr, ptr, [64 x %struct.dt_pthread_mutex_t], %struct.dt_pthread_mutex_t, %struct.dt_pthread_mutex_t, %struct.dt_pthread_mutex_t, %struct.dt_pthread_mutex_t, %struct.dt_pthread_mutex_t, ptr, ptr, ptr, ptr, ptr, ptr, ptr, ptr, ptr, ptr, ptr, ptr, ptr, %struct.dt_lua_state_t, ptr, double, ptr, i32, [47 x i32], i32, i32, ptr, ptr, %struct.dt_sys_resources_t, %struct.dt_backthumb_t, %struct.dt_gimp_t }
%struct.dt_codepath_t = type { i8, [3 x i8] }
%struct.dt_pthread_mutex_t = type { %union.pthread_mutex_t }
%union.pthread_mutex_t = type { %struct.__pthread_mutex_s }
%struct.__pthread_mutex_s = type { i32, i32, i32, i32, i32, i16, i16, %struct.__pthread_internal_list }
%struct.__pthread_internal_list = type { ptr, ptr }
%struct.dt_lua_state_t = type { i32 }
%struct.dt_sys_resources_t = type { i64, i64, ptr, ptr, i32 }
%struct.dt_backthumb_t = type { double, double, i32, i32, i32, i32 }
%struct.dt_gimp_t = type { i32, ptr, ptr, i32, i32 }
%struct.dt_action_t = type { i32, ptr, ptr, ptr, ptr, ptr }
%struct.dt_control_t = type { i32, ptr, %struct.dt_action_t, %struct.dt_action_t, %struct.dt_action_t, %struct.dt_action_t, %struct.dt_action_t, %struct.dt_action_t, %struct.dt_action_t, %struct.dt_action_t, %struct.dt_action_t, %struct.dt_action_t, %struct.dt_action_t, ptr, ptr, ptr, i32, ptr, i32, i32, ptr, ptr, [256 x i8], i32, double, i32, i32, i64, i32, i32, i32, double, double, i32, i32, i32, i32, i32, i32, [8 x [1000 x i8]], i32, i32, %struct.dt_pthread_mutex_t, i32, i32, [2 x [300 x i8]], i32, i32, %struct.dt_pthread_mutex_t, %struct.dt_pthread_mutex_t, %struct.dt_pthread_mutex_t, double, i32, i32, i32, %struct.dt_pthread_mutex_t, %struct.dt_pthread_mutex_t, %union.pthread_cond_t, i32, ptr, i64, i64, ptr, [5 x ptr], [5 x i64], %struct.dt_pthread_mutex_t, [3 x ptr], [3 x i8], [3 x i64], %struct.anon.0, %struct.anon.2 }
%union.pthread_cond_t = type { %struct.__pthread_cond_s }
%struct.__pthread_cond_s = type { %union.__atomic_wide_counter, %union.__atomic_wide_counter, [2 x i32], [2 x i32], i32, i32, [2 x i32] }
%union.__atomic_wide_counter = type { i64 }
%struct.anon.0 = type { ptr, i64, i64, double, %struct.dt_pthread_mutex_t, %struct.anon.1 }
%struct.anon.1 = type { ptr, ptr, ptr, ptr, ptr, ptr }
%struct.anon.2 = type { %struct.anon.3 }
%struct.anon.3 = type { ptr, ptr }

@darktable = external global %struct.darktable_t, align 8

; Function Attrs: inlinehint nounwind uwtable
define internal i32 @dt_pthread_mutex_unlock(ptr noundef %0) #4 {
  %2 = alloca ptr, align 8
  store ptr %0, ptr %2, align 8, !tbaa !118
  %3 = load ptr, ptr %2, align 8, !tbaa !118
  %4 = getelementptr inbounds nuw %struct.dt_pthread_mutex_t, ptr %3, i32 0, i32 0
  %5 = call i32 @pthread_mutex_unlock(ptr noundef %4) #10
  ret i32 %5
}

; Function Attrs: inlinehint nounwind uwtable
define internal i32 @dt_pthread_mutex_lock(ptr noundef %0) #4 {
  %2 = alloca ptr, align 8
  store ptr %0, ptr %2, align 8, !tbaa !118
  %3 = load ptr, ptr %2, align 8, !tbaa !118
  %4 = getelementptr inbounds nuw %struct.dt_pthread_mutex_t, ptr %3, i32 0, i32 0
  %5 = call i32 @pthread_mutex_lock(ptr noundef %4) #10
  ret i32 %5
}

; Function Attrs: nounwind uwtable
define void @dt_control_button_pressed(double noundef %0, double noundef %1, double noundef %2, i32 noundef %3, i32 noundef %4, i32 noundef %5) #0 {
  %7 = alloca double, align 8
  %8 = alloca double, align 8
  %9 = alloca double, align 8
  %10 = alloca i32, align 4
  %11 = alloca i32, align 4
  %12 = alloca i32, align 4
  %13 = alloca ptr, align 8
  %14 = alloca double, align 8
  %15 = alloca double, align 8
  %16 = alloca i32, align 4
  store double %0, ptr %7, align 8, !tbaa !161
  store double %1, ptr %8, align 8, !tbaa !161
  store double %2, ptr %9, align 8, !tbaa !161
  store i32 %3, ptr %10, align 4, !tbaa !10
  store i32 %4, ptr %11, align 4, !tbaa !10
  store i32 %5, ptr %12, align 4, !tbaa !10
  call void @llvm.lifetime.start.p0(i64 8, ptr %13) #10
  %17 = load ptr, ptr getelementptr inbounds nuw (%struct.darktable_t, ptr @darktable, i32 0, i32 12), align 8, !tbaa !120
  store ptr %17, ptr %13, align 8, !tbaa !73
  %18 = load ptr, ptr %13, align 8, !tbaa !73
  %19 = getelementptr inbounds nuw %struct.dt_control_t, ptr %18, i32 0, i32 28
  store i32 1, ptr %19, align 8, !tbaa !114
  %20 = load i32, ptr %10, align 4, !tbaa !10
  %21 = load ptr, ptr %13, align 8, !tbaa !73
  %22 = getelementptr inbounds nuw %struct.dt_control_t, ptr %21, i32 0, i32 29
  store i32 %20, ptr %22, align 4, !tbaa !115
  %23 = load i32, ptr %11, align 4, !tbaa !10
  %24 = load ptr, ptr %13, align 8, !tbaa !73
  %25 = getelementptr inbounds nuw %struct.dt_control_t, ptr %24, i32 0, i32 30
  store i32 %23, ptr %25, align 8, !tbaa !170
  %26 = load double, ptr %7, align 8, !tbaa !161
  %27 = load ptr, ptr %13, align 8, !tbaa !73
  %28 = getelementptr inbounds nuw %struct.dt_control_t, ptr %27, i32 0, i32 31
  store double %26, ptr %28, align 8, !tbaa !171
  %29 = load double, ptr %8, align 8, !tbaa !161
  %30 = load ptr, ptr %13, align 8, !tbaa !73
  %31 = getelementptr inbounds nuw %struct.dt_control_t, ptr %30, i32 0, i32 32
  store double %29, ptr %31, align 8, !tbaa !172
  call void @llvm.lifetime.start.p0(i64 8, ptr %14) #10
  %32 = load ptr, ptr %13, align 8, !tbaa !73
  %33 = getelementptr inbounds nuw %struct.dt_control_t, ptr %32, i32 0, i32 26
  %34 = load i32, ptr %33, align 4, !tbaa !163
  %35 = sitofp i32 %34 to double
  store double %35, ptr %14, align 8, !tbaa !161
  %36 = load ptr, ptr %13, align 8, !tbaa !73
  %37 = getelementptr inbounds nuw %struct.dt_control_t, ptr %36, i32 0, i32 42
  %38 = call i32 @dt_pthread_mutex_lock(ptr noundef %37)
  call void @llvm.lifetime.start.p0(i64 8, ptr %15) #10
  %39 = load double, ptr %14, align 8, !tbaa !161
  %40 = fmul reassoc nsz arcp contract afn double %39, 8.500000e-01
  %41 = fadd reassoc nsz arcp contract afn double %40, 1.000000e+01
  store double %41, ptr %15, align 8, !tbaa !161
  %42 = load ptr, ptr %13, align 8, !tbaa !73
  %43 = getelementptr inbounds nuw %struct.dt_control_t, ptr %42, i32 0, i32 38
  %44 = load i32, ptr %43, align 4, !tbaa !106
  %45 = load ptr, ptr %13, align 8, !tbaa !73
  %46 = getelementptr inbounds nuw %struct.dt_control_t, ptr %45, i32 0, i32 37
  %47 = load i32, ptr %46, align 8, !tbaa !107
  %48 = icmp ne i32 %44, %47
  br i1 %48, label %49, label %84

49:                                               ; preds = %6
  %50 = load i32, ptr %10, align 4, !tbaa !10
  %51 = icmp eq i32 %50, 1
  br i1 %51, label %52, label %83

52:                                               ; preds = %49
  %53 = load double, ptr %8, align 8, !tbaa !161
  %54 = load double, ptr %15, align 8, !tbaa !161
  %55 = fsub reassoc nsz arcp contract afn double %54, 1.000000e+01
  %56 = fcmp reassoc nsz arcp contract afn ogt double %53, %55
  br i1 %56, label %57, label %83

57:                                               ; preds = %52
  %58 = load double, ptr %8, align 8, !tbaa !161
  %59 = load double, ptr %15, align 8, !tbaa !161
  %60 = fadd reassoc nsz arcp contract afn double %59, 1.000000e+01
  %61 = fcmp reassoc nsz arcp contract afn olt double %58, %60
  br i1 %61, label %62, label %83

62:                                               ; preds = %57
  %63 = load ptr, ptr %13, align 8, !tbaa !73
  %64 = getelementptr inbounds nuw %struct.dt_control_t, ptr %63, i32 0, i32 40
  %65 = load i32, ptr %64, align 8, !tbaa !109
  %66 = icmp ne i32 %65, 0
  br i1 %66, label %67, label %74

67:                                               ; preds = %62
  %68 = load ptr, ptr %13, align 8, !tbaa !73
  %69 = getelementptr inbounds nuw %struct.dt_control_t, ptr %68, i32 0, i32 40
  %70 = load i32, ptr %69, align 8, !tbaa !109
  %71 = call i32 @g_source_remove(i32 noundef %70)
  %72 = load ptr, ptr %13, align 8, !tbaa !73
  %73 = getelementptr inbounds nuw %struct.dt_control_t, ptr %72, i32 0, i32 40
  store i32 0, ptr %73, align 8, !tbaa !109
  br label %74

74:                                               ; preds = %67, %62
  %75 = load ptr, ptr %13, align 8, !tbaa !73
  %76 = getelementptr inbounds nuw %struct.dt_control_t, ptr %75, i32 0, i32 37
  %77 = load i32, ptr %76, align 8, !tbaa !107
  %78 = load ptr, ptr %13, align 8, !tbaa !73
  %79 = getelementptr inbounds nuw %struct.dt_control_t, ptr %78, i32 0, i32 38
  store i32 %77, ptr %79, align 4, !tbaa !106
  %80 = load ptr, ptr %13, align 8, !tbaa !73
  %81 = getelementptr inbounds nuw %struct.dt_control_t, ptr %80, i32 0, i32 42
  %82 = call i32 @dt_pthread_mutex_unlock(ptr noundef %81)
  store i32 1, ptr %16, align 4
  br label %155

83:                                               ; preds = %57, %52, %49
  br label %84

84:                                               ; preds = %83, %6
  %85 = load ptr, ptr %13, align 8, !tbaa !73
  %86 = getelementptr inbounds nuw %struct.dt_control_t, ptr %85, i32 0, i32 42
  %87 = call i32 @dt_pthread_mutex_unlock(ptr noundef %86)
  %88 = load ptr, ptr %13, align 8, !tbaa !73
  %89 = getelementptr inbounds nuw %struct.dt_control_t, ptr %88, i32 0, i32 48
  %90 = call i32 @dt_pthread_mutex_lock(ptr noundef %89)
  %91 = load ptr, ptr %13, align 8, !tbaa !73
  %92 = getelementptr inbounds nuw %struct.dt_control_t, ptr %91, i32 0, i32 44
  %93 = load i32, ptr %92, align 4, !tbaa !110
  %94 = load ptr, ptr %13, align 8, !tbaa !73
  %95 = getelementptr inbounds nuw %struct.dt_control_t, ptr %94, i32 0, i32 43
  %96 = load i32, ptr %95, align 8, !tbaa !111
  %97 = icmp ne i32 %93, %96
  br i1 %97, label %98, label %133

98:                                               ; preds = %84
  %99 = load i32, ptr %10, align 4, !tbaa !10
  %100 = icmp eq i32 %99, 1
  br i1 %100, label %101, label %132

101:                                              ; preds = %98
  %102 = load double, ptr %8, align 8, !tbaa !161
  %103 = load double, ptr %15, align 8, !tbaa !161
  %104 = fsub reassoc nsz arcp contract afn double %103, 1.000000e+01
  %105 = fcmp reassoc nsz arcp contract afn ogt double %102, %104
  br i1 %105, label %106, label %132

106:                                              ; preds = %101
  %107 = load double, ptr %8, align 8, !tbaa !161
  %108 = load double, ptr %15, align 8, !tbaa !161
  %109 = fadd reassoc nsz arcp contract afn double %108, 1.000000e+01
  %110 = fcmp reassoc nsz arcp contract afn olt double %107, %109
  br i1 %110, label %111, label %132

111:                                              ; preds = %106
  %112 = load ptr, ptr %13, align 8, !tbaa !73
  %113 = getelementptr inbounds nuw %struct.dt_control_t, ptr %112, i32 0, i32 46
  %114 = load i32, ptr %113, align 8, !tbaa !113
  %115 = icmp ne i32 %114, 0
  br i1 %115, label %116, label %123

116:                                              ; preds = %111
  %117 = load ptr, ptr %13, align 8, !tbaa !73
  %118 = getelementptr inbounds nuw %struct.dt_control_t, ptr %117, i32 0, i32 46
  %119 = load i32, ptr %118, align 8, !tbaa !113
  %120 = call i32 @g_source_remove(i32 noundef %119)
  %121 = load ptr, ptr %13, align 8, !tbaa !73
  %122 = getelementptr inbounds nuw %struct.dt_control_t, ptr %121, i32 0, i32 46
  store i32 0, ptr %122, align 8, !tbaa !113
  br label %123

123:                                              ; preds = %116, %111
  %124 = load ptr, ptr %13, align 8, !tbaa !73
  %125 = getelementptr inbounds nuw %struct.dt_control_t, ptr %124, i32 0, i32 43
  %126 = load i32, ptr %125, align 8, !tbaa !111
  %127 = load ptr, ptr %13, align 8, !tbaa !73
  %128 = getelementptr inbounds nuw %struct.dt_control_t, ptr %127, i32 0, i32 44
  store i32 %126, ptr %128, align 4, !tbaa !110
  %129 = load ptr, ptr %13, align 8, !tbaa !73
  %130 = getelementptr inbounds nuw %struct.dt_control_t, ptr %129, i32 0, i32 48
  %131 = call i32 @dt_pthread_mutex_unlock(ptr noundef %130)
  store i32 1, ptr %16, align 4
  br label %155

132:                                              ; preds = %106, %101, %98
  br label %133

133:                                              ; preds = %132, %84
  %134 = load ptr, ptr %13, align 8, !tbaa !73
  %135 = getelementptr inbounds nuw %struct.dt_control_t, ptr %134, i32 0, i32 48
  %136 = call i32 @dt_pthread_mutex_unlock(ptr noundef %135)
  %137 = load ptr, ptr getelementptr inbounds nuw (%struct.darktable_t, ptr @darktable, i32 0, i32 11), align 8, !tbaa !14
  %138 = load double, ptr %7, align 8, !tbaa !161
  %139 = load double, ptr %8, align 8, !tbaa !161
  %140 = load double, ptr %9, align 8, !tbaa !161
  %141 = load i32, ptr %10, align 4, !tbaa !10
  %142 = load i32, ptr %11, align 4, !tbaa !10
  %143 = load i32, ptr %12, align 4, !tbaa !10
  %144 = call i32 @dt_view_manager_button_pressed(ptr noundef %137, double noundef %138, double noundef %139, double noundef %140, i32 noundef %141, i32 noundef %142, i32 noundef %143)
  %145 = icmp ne i32 %144, 0
  br i1 %145, label %154, label %146

146:                                              ; preds = %133
  %147 = load i32, ptr %11, align 4, !tbaa !10
  %148 = icmp eq i32 %147, 5
  br i1 %148, label %149, label %153

149:                                              ; preds = %146
  %150 = load i32, ptr %10, align 4, !tbaa !10
  %151 = icmp eq i32 %150, 1
  br i1 %151, label %152, label %153

152:                                              ; preds = %149
  call void @dt_ctl_switch_mode()
  br label %153

153:                                              ; preds = %152, %149, %146
  br label %154

154:                                              ; preds = %153, %133
  store i32 0, ptr %16, align 4
  br label %155

155:                                              ; preds = %154, %123, %74
  call void @llvm.lifetime.end.p0(i64 8, ptr %15) #10
  call void @llvm.lifetime.end.p0(i64 8, ptr %14) #10
  call void @llvm.lifetime.end.p0(i64 8, ptr %13) #10
  %156 = load i32, ptr %16, align 4
  switch i32 %156, label %158 [
    i32 0, label %157
    i32 1, label %157
  ]

157:                                              ; preds = %155, %155
  ret void

158:                                              ; preds = %155
  unreachable
}