; Function Attrs: nounwind uwtable
define void @dt_control_button_pressed(double noundef %0, double noundef %1, double noundef %2, i32 noundef %3, i32 noundef %4, i32 noundef %5) local_unnamed_addr #0 {
  %7 = load ptr, ptr getelementptr inbounds nuw (i8, ptr @darktable, i64 88), align 8, !tbaa !107
  %8 = getelementptr inbounds nuw i8, ptr %7, i64 896
  store i32 1, ptr %8, align 8, !tbaa !103
  %9 = getelementptr inbounds nuw i8, ptr %7, i64 900
  store i32 %3, ptr %9, align 4, !tbaa !104
  %10 = getelementptr inbounds nuw i8, ptr %7, i64 904
  store i32 %4, ptr %10, align 8, !tbaa !144
  %11 = getelementptr inbounds nuw i8, ptr %7, i64 912
  store double %0, ptr %11, align 8, !tbaa !145
  %12 = getelementptr inbounds nuw i8, ptr %7, i64 920
  store double %1, ptr %12, align 8, !tbaa !146
  %13 = getelementptr inbounds nuw i8, ptr %7, i64 884
  %14 = load i32, ptr %13, align 4, !tbaa !139
  %15 = sitofp i32 %14 to double
  %16 = getelementptr inbounds nuw i8, ptr %7, i64 8960
  %17 = tail call i32 @pthread_mutex_lock(ptr noundef nonnull %16) #13
  %18 = fmul reassoc nsz arcp contract afn double %15, 8.500000e-01
  %19 = getelementptr inbounds nuw i8, ptr %7, i64 948
  %20 = load i32, ptr %19, align 4, !tbaa !95
  %21 = getelementptr inbounds nuw i8, ptr %7, i64 944
  %22 = load i32, ptr %21, align 8, !tbaa !96
  %23 = icmp ne i32 %20, %22
  %24 = icmp eq i32 %3, 1
  %or.cond3 = and i1 %24, %23
  %25 = fcmp reassoc nsz arcp contract afn ogt double %1, %18
  %26 = fadd reassoc nsz arcp contract afn double %18, 2.000000e+01
  %27 = fcmp reassoc nsz arcp contract afn olt double %1, %26
  %28 = and i1 %25, %27
  %or.cond59 = select i1 %or.cond3, i1 %28, i1 false
  br i1 %or.cond59, label %29, label %37

29:                                               ; preds = %6
  %30 = getelementptr inbounds nuw i8, ptr %7, i64 8952
  %31 = load i32, ptr %30, align 8, !tbaa !98
  %.not56 = icmp eq i32 %31, 0
  br i1 %.not56, label %34, label %32

32:                                               ; preds = %29
  %33 = tail call i32 @g_source_remove(i32 noundef %31) #13
  store i32 0, ptr %30, align 8, !tbaa !98
  %.pre64 = load i32, ptr %21, align 8, !tbaa !96
  br label %34

34:                                               ; preds = %32, %29
  %35 = phi i32 [ %.pre64, %32 ], [ %22, %29 ]
  store i32 %35, ptr %19, align 4, !tbaa !95
  %36 = tail call i32 @pthread_mutex_unlock(ptr noundef nonnull %16) #13
  br label %61

37:                                               ; preds = %6
  %38 = tail call i32 @pthread_mutex_unlock(ptr noundef nonnull %16) #13
  %39 = getelementptr inbounds nuw i8, ptr %7, i64 9616
  %40 = tail call i32 @pthread_mutex_lock(ptr noundef nonnull %39) #13
  %41 = getelementptr inbounds nuw i8, ptr %7, i64 9004
  %42 = load i32, ptr %41, align 4, !tbaa !99
  %43 = getelementptr inbounds nuw i8, ptr %7, i64 9000
  %44 = load i32, ptr %43, align 8, !tbaa !100
  %45 = icmp ne i32 %42, %44
  %or.cond5 = and i1 %24, %45
  %or.cond62 = select i1 %or.cond5, i1 %28, i1 false
  br i1 %or.cond62, label %46, label %54

46:                                               ; preds = %37
  %47 = getelementptr inbounds nuw i8, ptr %7, i64 9608
  %48 = load i32, ptr %47, align 8, !tbaa !102
  %.not55 = icmp eq i32 %48, 0
  br i1 %.not55, label %51, label %49

49:                                               ; preds = %46
  %50 = tail call i32 @g_source_remove(i32 noundef %48) #13
  store i32 0, ptr %47, align 8, !tbaa !102
  %.pre = load i32, ptr %43, align 8, !tbaa !100
  br label %51

51:                                               ; preds = %49, %46
  %52 = phi i32 [ %.pre, %49 ], [ %44, %46 ]
  store i32 %52, ptr %41, align 4, !tbaa !99
  %53 = tail call i32 @pthread_mutex_unlock(ptr noundef nonnull %39) #13
  br label %61

54:                                               ; preds = %37
  %55 = tail call i32 @pthread_mutex_unlock(ptr noundef nonnull %39) #13
  %56 = load ptr, ptr getelementptr inbounds nuw (i8, ptr @darktable, i64 80), align 8, !tbaa !6
  %57 = tail call i32 @dt_view_manager_button_pressed(ptr noundef %56, double noundef %0, double noundef %1, double noundef %2, i32 noundef %3, i32 noundef %4, i32 noundef %5) #13
  %.not = icmp eq i32 %57, 0
  %58 = icmp eq i32 %4, 5
  %59 = and i1 %58, %.not
  %or.cond63 = and i1 %24, %59
  br i1 %or.cond63, label %60, label %61

60:                                               ; preds = %54
  tail call void @dt_ctl_switch_mode()
  br label %61

61:                                               ; preds = %54, %60, %51, %34
  ret void
}